; Function Attrs: mustprogress uwtable
define dso_local void @_ZN34btDeformableMultiBodyDynamicsWorld19applyRepulsionForceEf(ptr noundef nonnull readonly align 8 captures(none) dereferenceable(1056) %0, float noundef %1) local_unnamed_addr #4 align 2 personality ptr @__gxx_personality_v0 {
  %3 = alloca %class.CProfileSample, align 1
  call void @llvm.lifetime.start.p0(i64 1, ptr nonnull %3) #21
  call void @_ZN14CProfileSampleC1EPKc(ptr noundef nonnull align 1 dereferenceable(1) %3, ptr noundef nonnull @.str.7)
  %4 = getelementptr inbounds nuw i8, ptr %0, i64 860
  %5 = load i32, ptr %4, align 4, !tbaa !142
  %6 = icmp sgt i32 %5, 0
  br i1 %6, label %.lr.ph, label %._crit_edge

.lr.ph:                                           ; preds = %2
  %7 = getelementptr inbounds nuw i8, ptr %0, i64 872
  br label %8

._crit_edge:                                      ; preds = %_ZNK17btCollisionObject8isActiveEv.exit, %2
  call void @_ZN14CProfileSampleD1Ev(ptr noundef nonnull align 1 dereferenceable(1) %3) #21
  call void @llvm.lifetime.end.p0(i64 1, ptr nonnull %3) #21
  ret void

8:                                                ; preds = %.lr.ph, %_ZNK17btCollisionObject8isActiveEv.exit
  %9 = phi i32 [ %5, %.lr.ph ], [ %18, %_ZNK17btCollisionObject8isActiveEv.exit ]
  %indvars.iv = phi i64 [ 0, %.lr.ph ], [ %indvars.iv.next, %_ZNK17btCollisionObject8isActiveEv.exit ]
  %10 = load ptr, ptr %7, align 8, !tbaa !141
  %11 = getelementptr inbounds nuw ptr, ptr %10, i64 %indvars.iv
  %12 = load ptr, ptr %11, align 8, !tbaa !232
  %13 = getelementptr inbounds nuw i8, ptr %12, i64 240
  %14 = load i32, ptr %13, align 8, !tbaa !325
  switch i32 %14, label %15 [
    i32 6, label %_ZNK17btCollisionObject8isActiveEv.exit
    i32 2, label %_ZNK17btCollisionObject8isActiveEv.exit
    i32 5, label %_ZNK17btCollisionObject8isActiveEv.exit
  ]

15:                                               ; preds = %8
  invoke void @_ZN10btSoftBody19applyRepulsionForceEfb(ptr noundef nonnull align 8 dereferenceable(2064) %12, float noundef %1, i1 noundef zeroext true)
          to label %._ZNK17btCollisionObject8isActiveEv.exit_crit_edge unwind label %16

._ZNK17btCollisionObject8isActiveEv.exit_crit_edge: ; preds = %15
  %.pre = load i32, ptr %4, align 4, !tbaa !142
  br label %_ZNK17btCollisionObject8isActiveEv.exit

16:                                               ; preds = %15
  %17 = landingpad { ptr, i32 }
          cleanup
  call void @_ZN14CProfileSampleD1Ev(ptr noundef nonnull align 1 dereferenceable(1) %3) #21
  call void @llvm.lifetime.end.p0(i64 1, ptr nonnull %3) #21
  resume { ptr, i32 } %17

_ZNK17btCollisionObject8isActiveEv.exit:          ; preds = %._ZNK17btCollisionObject8isActiveEv.exit_crit_edge, %8, %8, %8
  %18 = phi i32 [ %.pre, %._ZNK17btCollisionObject8isActiveEv.exit_crit_edge ], [ %9, %8 ], [ %9, %8 ], [ %9, %8 ]
  %indvars.iv.next = add nuw nsw i64 %indvars.iv, 1
  %19 = sext i32 %18 to i64
  %20 = icmp slt i64 %indvars.iv.next, %19
  br i1 %20, label %8, label %._crit_edge, !llvm.loop !326
}